; Function Attrs: mustprogress nounwind uwtable
define dso_local void @_ZN8DfgGraphD2Ev(ptr noundef nonnull align 8 dereferenceable(104) %0) unnamed_addr #4 align 2 personality ptr @__gxx_personality_v0 {
  %2 = alloca %"class.std::function", align 8
  %3 = getelementptr inbounds i8, ptr %2, i64 16
  %4 = getelementptr inbounds i8, ptr %2, i64 24
  call void @llvm.memset.p0.i64(ptr noundef nonnull align 8 dereferenceable(16) %2, i8 0, i64 16, i1 false)
  store ptr @"_ZNSt17_Function_handlerIFvR9DfgVertexEZN8DfgGraphD1EvE3$_0E9_M_invokeERKSt9_Any_dataS1_", ptr %4, align 8
  store ptr @"_ZNSt17_Function_handlerIFvR9DfgVertexEZN8DfgGraphD1EvE3$_0E10_M_managerERSt9_Any_dataRKS6_St18_Manager_operation", ptr %3, align 8
  invoke void @_ZN8DfgGraph13forEachVertexESt8functionIFvR9DfgVertexEE(ptr noundef nonnull align 8 dereferenceable(104) %0, ptr noundef nonnull %2)
          to label %5 unwind label %13

5:                                                ; preds = %1
  %6 = load ptr, ptr %3, align 8
  %.not.i.i = icmp eq ptr %6, null
  br i1 %.not.i.i, label %_ZNSt8functionIFvR9DfgVertexEED2Ev.exit, label %7

7:                                                ; preds = %5
  %8 = invoke noundef zeroext i1 %6(ptr noundef nonnull align 8 dereferenceable(16) %2, ptr noundef nonnull align 8 dereferenceable(16) %2, i32 noundef 3)
          to label %_ZNSt8functionIFvR9DfgVertexEED2Ev.exit unwind label %9

9:                                                ; preds = %7
  %10 = landingpad { ptr, i32 }
          catch ptr null
  %11 = extractvalue { ptr, i32 } %10, 0
  call void @__clang_call_terminate(ptr %11) #27
  unreachable

_ZNSt8functionIFvR9DfgVertexEED2Ev.exit:          ; preds = %5, %7
  %12 = getelementptr inbounds i8, ptr %0, i64 72
  call void @_ZNSt7__cxx1112basic_stringIcSt11char_traitsIcESaIcEED1Ev(ptr noundef nonnull align 8 dereferenceable(32) %12) #28
  ret void

13:                                               ; preds = %1
  %14 = landingpad { ptr, i32 }
          catch ptr null
  %15 = extractvalue { ptr, i32 } %14, 0
  call void @__clang_call_terminate(ptr %15) #27
  unreachable
}